; Function Attrs: mustprogress nounwind uwtable
define void @rocksdb_livefiles_destroy(ptr noundef %0) local_unnamed_addr #6 personality ptr @__gxx_personality_v0 {
  %2 = icmp eq ptr %0, null
  br i1 %2, label %24, label %3

3:                                                ; preds = %1
  %4 = load ptr, ptr %0, align 8, !tbaa !1109
  %5 = getelementptr inbounds nuw i8, ptr %0, i64 8
  %6 = load ptr, ptr %5, align 8, !tbaa !1106
  %.not4.i.i.i.i.i = icmp eq ptr %4, %6
  br i1 %.not4.i.i.i.i.i, label %_ZSt8_DestroyIPN7rocksdb16LiveFileMetaDataES1_EvT_S3_RSaIT0_E.exit.i.i, label %.lr.ph.i.i.i.i.i

.lr.ph.i.i.i.i.i:                                 ; preds = %3, %_ZSt8_DestroyIN7rocksdb16LiveFileMetaDataEEvPT_.exit.i.i.i.i.i
  %.05.i.i.i.i.i = phi ptr [ %16, %_ZSt8_DestroyIN7rocksdb16LiveFileMetaDataEEvPT_.exit.i.i.i.i.i ], [ %4, %3 ]
  %7 = getelementptr inbounds nuw i8, ptr %.05.i.i.i.i.i, i64 432
  %8 = load ptr, ptr %7, align 8, !tbaa !12
  %9 = getelementptr inbounds nuw i8, ptr %.05.i.i.i.i.i, i64 448
  %10 = icmp eq ptr %8, %9
  br i1 %10, label %_ZNKSt7__cxx1112basic_stringIcSt11char_traitsIcESaIcEE11_M_is_localEv.exit.thread.i.i.i.i.i.i.i.i.i, label %_ZNKSt7__cxx1112basic_stringIcSt11char_traitsIcESaIcEE11_M_is_localEv.exit.i.i.i.i.i.i.i.i.i

_ZNKSt7__cxx1112basic_stringIcSt11char_traitsIcESaIcEE11_M_is_localEv.exit.thread.i.i.i.i.i.i.i.i.i: ; preds = %.lr.ph.i.i.i.i.i
  %11 = getelementptr inbounds nuw i8, ptr %.05.i.i.i.i.i, i64 440
  %12 = load i64, ptr %11, align 8, !tbaa !15
  %13 = icmp ult i64 %12, 16
  tail call void @llvm.assume(i1 %13)
  br label %_ZSt8_DestroyIN7rocksdb16LiveFileMetaDataEEvPT_.exit.i.i.i.i.i

_ZNKSt7__cxx1112basic_stringIcSt11char_traitsIcESaIcEE11_M_is_localEv.exit.i.i.i.i.i.i.i.i.i: ; preds = %.lr.ph.i.i.i.i.i
  %14 = load i64, ptr %9, align 8, !tbaa !14
  %15 = add i64 %14, 1
  tail call void @_ZdlPvm(ptr noundef %8, i64 noundef %15) #45
  br label %_ZSt8_DestroyIN7rocksdb16LiveFileMetaDataEEvPT_.exit.i.i.i.i.i

_ZSt8_DestroyIN7rocksdb16LiveFileMetaDataEEvPT_.exit.i.i.i.i.i: ; preds = %_ZNKSt7__cxx1112basic_stringIcSt11char_traitsIcESaIcEE11_M_is_localEv.exit.i.i.i.i.i.i.i.i.i, %_ZNKSt7__cxx1112basic_stringIcSt11char_traitsIcESaIcEE11_M_is_localEv.exit.thread.i.i.i.i.i.i.i.i.i
  tail call void @_ZN7rocksdb15SstFileMetaDataD2Ev(ptr noundef nonnull align 8 dereferenceable(468) %.05.i.i.i.i.i) #43
  %16 = getelementptr inbounds nuw i8, ptr %.05.i.i.i.i.i, i64 472
  %.not.i.i.i.i.i = icmp eq ptr %16, %6
  br i1 %.not.i.i.i.i.i, label %_ZSt8_DestroyIPN7rocksdb16LiveFileMetaDataES1_EvT_S3_RSaIT0_E.exitthread-pre-split.i.i, label %.lr.ph.i.i.i.i.i, !llvm.loop !1118

_ZSt8_DestroyIPN7rocksdb16LiveFileMetaDataES1_EvT_S3_RSaIT0_E.exitthread-pre-split.i.i: ; preds = %_ZSt8_DestroyIN7rocksdb16LiveFileMetaDataEEvPT_.exit.i.i.i.i.i
  %.pr.i.i = load ptr, ptr %0, align 8, !tbaa !1109
  br label %_ZSt8_DestroyIPN7rocksdb16LiveFileMetaDataES1_EvT_S3_RSaIT0_E.exit.i.i

_ZSt8_DestroyIPN7rocksdb16LiveFileMetaDataES1_EvT_S3_RSaIT0_E.exit.i.i: ; preds = %_ZSt8_DestroyIPN7rocksdb16LiveFileMetaDataES1_EvT_S3_RSaIT0_E.exitthread-pre-split.i.i, %3
  %17 = phi ptr [ %.pr.i.i, %_ZSt8_DestroyIPN7rocksdb16LiveFileMetaDataES1_EvT_S3_RSaIT0_E.exitthread-pre-split.i.i ], [ %4, %3 ]
  %.not.i.i.i.i = icmp eq ptr %17, null
  br i1 %.not.i.i.i.i, label %_ZN19rocksdb_livefiles_tD2Ev.exit, label %18

18:                                               ; preds = %_ZSt8_DestroyIPN7rocksdb16LiveFileMetaDataES1_EvT_S3_RSaIT0_E.exit.i.i
  %19 = getelementptr inbounds nuw i8, ptr %0, i64 16
  %20 = load ptr, ptr %19, align 8, !tbaa !1119
  %21 = ptrtoint ptr %20 to i64
  %22 = ptrtoint ptr %17 to i64
  %23 = sub i64 %21, %22
  tail call void @_ZdlPvm(ptr noundef nonnull %17, i64 noundef %23) #45
  br label %_ZN19rocksdb_livefiles_tD2Ev.exit

_ZN19rocksdb_livefiles_tD2Ev.exit:                ; preds = %_ZSt8_DestroyIPN7rocksdb16LiveFileMetaDataES1_EvT_S3_RSaIT0_E.exit.i.i, %18
  tail call void @_ZdlPvm(ptr noundef nonnull %0, i64 noundef 24) #45
  br label %24

24:                                               ; preds = %_ZN19rocksdb_livefiles_tD2Ev.exit, %1
  ret void
}